target datalayout = "e-m:e-p270:32:32-p271:32:32-p272:64:64-i64:64-i128:128-f80:128-n8:16:32:64-S128"
target triple = "x86_64-pc-linux-gnu"

%struct.H5O_shared_t = type { i32, ptr, i32, %union.anon }
%union.anon = type { %struct.H5O_mesg_loc_t }
%struct.H5O_mesg_loc_t = type { i32, i64 }
%struct.H5O_fill_t = type { %struct.H5O_shared_t, i32, ptr, i64, ptr, i32, i32, i8 }

@.str.30 = private unnamed_addr constant [9 x i8] c"%*s%-*s \00", align 1
@.str.31 = private unnamed_addr constant [1 x i8] zeroinitializer, align 1
@.str.32 = private unnamed_addr constant [23 x i8] c"Space Allocation Time:\00", align 1
@.str.33 = private unnamed_addr constant [7 x i8] c"Early\0A\00", align 1
@.str.34 = private unnamed_addr constant [6 x i8] c"Late\0A\00", align 1
@.str.35 = private unnamed_addr constant [13 x i8] c"Incremental\0A\00", align 1
@.str.36 = private unnamed_addr constant [10 x i8] c"Unknown!\0A\00", align 1
@.str.37 = private unnamed_addr constant [11 x i8] c"Fill Time:\00", align 1
@.str.38 = private unnamed_addr constant [15 x i8] c"On Allocation\0A\00", align 1
@.str.39 = private unnamed_addr constant [7 x i8] c"Never\0A\00", align 1
@.str.40 = private unnamed_addr constant [8 x i8] c"If Set\0A\00", align 1
@.str.41 = private unnamed_addr constant [20 x i8] c"Fill Value Defined:\00", align 1
@.str.42 = private unnamed_addr constant [11 x i8] c"Undefined\0A\00", align 1
@.str.43 = private unnamed_addr constant [9 x i8] c"Default\0A\00", align 1
@.str.44 = private unnamed_addr constant [14 x i8] c"User Defined\0A\00", align 1
@.str.45 = private unnamed_addr constant [13 x i8] c"%*s%-*s %zd\0A\00", align 1
@.str.46 = private unnamed_addr constant [6 x i8] c"Size:\00", align 1
@.str.47 = private unnamed_addr constant [11 x i8] c"Data type:\00", align 1
@.str.48 = private unnamed_addr constant [2 x i8] c"\0A\00", align 1
@.str.49 = private unnamed_addr constant [16 x i8] c"<dataset type>\0A\00", align 1

; Function Attrs: nounwind uwtable
define internal i32 @H5O__fill_debug(ptr noundef %0, ptr noundef %1, ptr noundef %2, i32 noundef %3, i32 noundef %4) #0 {
  %6 = alloca ptr, align 8
  %7 = alloca ptr, align 8
  %8 = alloca ptr, align 8
  %9 = alloca i32, align 4
  %10 = alloca i32, align 4
  %11 = alloca ptr, align 8
  %12 = alloca i32, align 4
  store ptr %0, ptr %6, align 8
  store ptr %1, ptr %7, align 8
  store ptr %2, ptr %8, align 8
  store i32 %3, ptr %9, align 4
  store i32 %4, ptr %10, align 4
  %13 = load ptr, ptr %7, align 8
  store ptr %13, ptr %11, align 8
  %14 = load ptr, ptr %8, align 8
  %15 = load i32, ptr %9, align 4
  %16 = load i32, ptr %10, align 4
  %17 = call i32 (ptr, ptr, ...) @fprintf(ptr noundef %14, ptr noundef @.str.30, i32 noundef %15, ptr noundef @.str.31, i32 noundef %16, ptr noundef @.str.32) #9
  %18 = load ptr, ptr %11, align 8
  %19 = getelementptr inbounds %struct.H5O_fill_t, ptr %18, i32 0, i32 5
  %20 = load i32, ptr %19, align 8
  switch i32 %20, label %31 [
    i32 1, label %21
    i32 2, label %24
    i32 3, label %27
    i32 0, label %30
    i32 -1, label %30
  ]

21:                                               ; preds = %5
  %22 = load ptr, ptr %8, align 8
  %23 = call i32 (ptr, ptr, ...) @fprintf(ptr noundef %22, ptr noundef @.str.33) #9
  br label %34

24:                                               ; preds = %5
  %25 = load ptr, ptr %8, align 8
  %26 = call i32 (ptr, ptr, ...) @fprintf(ptr noundef %25, ptr noundef @.str.34) #9
  br label %34

27:                                               ; preds = %5
  %28 = load ptr, ptr %8, align 8
  %29 = call i32 (ptr, ptr, ...) @fprintf(ptr noundef %28, ptr noundef @.str.35) #9
  br label %34

30:                                               ; preds = %5, %5
  br label %31

31:                                               ; preds = %30, %5
  %32 = load ptr, ptr %8, align 8
  %33 = call i32 (ptr, ptr, ...) @fprintf(ptr noundef %32, ptr noundef @.str.36) #9
  br label %34

34:                                               ; preds = %31, %27, %24, %21
  %35 = load ptr, ptr %8, align 8
  %36 = load i32, ptr %9, align 4
  %37 = load i32, ptr %10, align 4
  %38 = call i32 (ptr, ptr, ...) @fprintf(ptr noundef %35, ptr noundef @.str.30, i32 noundef %36, ptr noundef @.str.31, i32 noundef %37, ptr noundef @.str.37) #9
  %39 = load ptr, ptr %11, align 8
  %40 = getelementptr inbounds %struct.H5O_fill_t, ptr %39, i32 0, i32 6
  %41 = load i32, ptr %40, align 4
  switch i32 %41, label %52 [
    i32 0, label %42
    i32 1, label %45
    i32 2, label %48
    i32 -1, label %51
  ]

42:                                               ; preds = %34
  %43 = load ptr, ptr %8, align 8
  %44 = call i32 (ptr, ptr, ...) @fprintf(ptr noundef %43, ptr noundef @.str.38) #9
  br label %55

45:                                               ; preds = %34
  %46 = load ptr, ptr %8, align 8
  %47 = call i32 (ptr, ptr, ...) @fprintf(ptr noundef %46, ptr noundef @.str.39) #9
  br label %55

48:                                               ; preds = %34
  %49 = load ptr, ptr %8, align 8
  %50 = call i32 (ptr, ptr, ...) @fprintf(ptr noundef %49, ptr noundef @.str.40) #9
  br label %55

51:                                               ; preds = %34
  br label %52

52:                                               ; preds = %51, %34
  %53 = load ptr, ptr %8, align 8
  %54 = call i32 (ptr, ptr, ...) @fprintf(ptr noundef %53, ptr noundef @.str.36) #9
  br label %55

55:                                               ; preds = %52, %48, %45, %42
  %56 = load ptr, ptr %8, align 8
  %57 = load i32, ptr %9, align 4
  %58 = load i32, ptr %10, align 4
  %59 = call i32 (ptr, ptr, ...) @fprintf(ptr noundef %56, ptr noundef @.str.30, i32 noundef %57, ptr noundef @.str.31, i32 noundef %58, ptr noundef @.str.41) #9
  %60 = load ptr, ptr %11, align 8
  %61 = call i32 @H5P_is_fill_value_defined(ptr noundef %60, ptr noundef %12)
  %62 = load i32, ptr %12, align 4
  switch i32 %62, label %73 [
    i32 0, label %63
    i32 1, label %66
    i32 2, label %69
    i32 -1, label %72
  ]

63:                                               ; preds = %55
  %64 = load ptr, ptr %8, align 8
  %65 = call i32 (ptr, ptr, ...) @fprintf(ptr noundef %64, ptr noundef @.str.42) #9
  br label %76

66:                                               ; preds = %55
  %67 = load ptr, ptr %8, align 8
  %68 = call i32 (ptr, ptr, ...) @fprintf(ptr noundef %67, ptr noundef @.str.43) #9
  br label %76

69:                                               ; preds = %55
  %70 = load ptr, ptr %8, align 8
  %71 = call i32 (ptr, ptr, ...) @fprintf(ptr noundef %70, ptr noundef @.str.44) #9
  br label %76

72:                                               ; preds = %55
  br label %73

73:                                               ; preds = %72, %55
  %74 = load ptr, ptr %8, align 8
  %75 = call i32 (ptr, ptr, ...) @fprintf(ptr noundef %74, ptr noundef @.str.36) #9
  br label %76

76:                                               ; preds = %73, %69, %66, %63
  %77 = load ptr, ptr %8, align 8
  %78 = load i32, ptr %9, align 4
  %79 = load i32, ptr %10, align 4
  %80 = load ptr, ptr %11, align 8
  %81 = getelementptr inbounds %struct.H5O_fill_t, ptr %80, i32 0, i32 3
  %82 = load i64, ptr %81, align 8
  %83 = call i32 (ptr, ptr, ...) @fprintf(ptr noundef %77, ptr noundef @.str.45, i32 noundef %78, ptr noundef @.str.31, i32 noundef %79, ptr noundef @.str.46, i64 noundef %82) #9
  %84 = load ptr, ptr %8, align 8
  %85 = load i32, ptr %9, align 4
  %86 = load i32, ptr %10, align 4
  %87 = call i32 (ptr, ptr, ...) @fprintf(ptr noundef %84, ptr noundef @.str.30, i32 noundef %85, ptr noundef @.str.31, i32 noundef %86, ptr noundef @.str.47) #9
  %88 = load ptr, ptr %11, align 8
  %89 = getelementptr inbounds %struct.H5O_fill_t, ptr %88, i32 0, i32 2
  %90 = load ptr, ptr %89, align 8
  %91 = icmp ne ptr %90, null
  br i1 %91, label %92, label %100

92:                                               ; preds = %76
  %93 = load ptr, ptr %11, align 8
  %94 = getelementptr inbounds %struct.H5O_fill_t, ptr %93, i32 0, i32 2
  %95 = load ptr, ptr %94, align 8
  %96 = load ptr, ptr %8, align 8
  %97 = call i32 @H5T_debug(ptr noundef %95, ptr noundef %96)
  %98 = load ptr, ptr %8, align 8
  %99 = call i32 (ptr, ptr, ...) @fprintf(ptr noundef %98, ptr noundef @.str.48) #9
  br label %103

100:                                              ; preds = %76
  %101 = load ptr, ptr %8, align 8
  %102 = call i32 (ptr, ptr, ...) @fprintf(ptr noundef %101, ptr noundef @.str.49) #9
  br label %103

103:                                              ; preds = %100, %92
  ret i32 0
}