; Function Attrs: nounwind uwtable
define internal fastcc void @H5O__fill_debug(ptr noundef %0, ptr noundef %1, i32 noundef %2, i32 noundef %3) unnamed_addr #0 {
  %5 = alloca i32, align 4
  %6 = tail call i32 (ptr, ptr, ...) @fprintf(ptr noundef %1, ptr noundef nonnull @.str.30, i32 noundef %2, ptr noundef nonnull @.str.31, i32 noundef %3, ptr noundef nonnull @.str.32) #8
  %7 = getelementptr inbounds i8, ptr %0, i64 72
  %8 = load i32, ptr %7, align 8
  switch i32 %8, label %15 [
    i32 1, label %9
    i32 2, label %11
    i32 3, label %13
  ]

9:                                                ; preds = %4
  %10 = tail call i64 @fwrite(ptr nonnull @.str.33, i64 6, i64 1, ptr %1)
  br label %17

11:                                               ; preds = %4
  %12 = tail call i64 @fwrite(ptr nonnull @.str.34, i64 5, i64 1, ptr %1)
  br label %17

13:                                               ; preds = %4
  %14 = tail call i64 @fwrite(ptr nonnull @.str.35, i64 12, i64 1, ptr %1)
  br label %17

15:                                               ; preds = %4
  %16 = tail call i64 @fwrite(ptr nonnull @.str.36, i64 9, i64 1, ptr %1)
  br label %17

17:                                               ; preds = %15, %13, %11, %9
  %18 = tail call i32 (ptr, ptr, ...) @fprintf(ptr noundef %1, ptr noundef nonnull @.str.30, i32 noundef %2, ptr noundef nonnull @.str.31, i32 noundef %3, ptr noundef nonnull @.str.37) #8
  %19 = getelementptr inbounds i8, ptr %0, i64 76
  %20 = load i32, ptr %19, align 4
  switch i32 %20, label %27 [
    i32 0, label %21
    i32 1, label %23
    i32 2, label %25
  ]

21:                                               ; preds = %17
  %22 = tail call i64 @fwrite(ptr nonnull @.str.38, i64 14, i64 1, ptr %1)
  br label %29

23:                                               ; preds = %17
  %24 = tail call i64 @fwrite(ptr nonnull @.str.39, i64 6, i64 1, ptr %1)
  br label %29

25:                                               ; preds = %17
  %26 = tail call i64 @fwrite(ptr nonnull @.str.40, i64 7, i64 1, ptr %1)
  br label %29

27:                                               ; preds = %17
  %28 = tail call i64 @fwrite(ptr nonnull @.str.36, i64 9, i64 1, ptr %1)
  br label %29

29:                                               ; preds = %27, %25, %23, %21
  %30 = tail call i32 (ptr, ptr, ...) @fprintf(ptr noundef %1, ptr noundef nonnull @.str.30, i32 noundef %2, ptr noundef nonnull @.str.31, i32 noundef %3, ptr noundef nonnull @.str.41) #8
  %31 = call i32 @H5P_is_fill_value_defined(ptr noundef nonnull %0, ptr noundef nonnull %5) #8
  %32 = load i32, ptr %5, align 4
  switch i32 %32, label %39 [
    i32 0, label %33
    i32 1, label %35
    i32 2, label %37
  ]

33:                                               ; preds = %29
  %34 = call i64 @fwrite(ptr nonnull @.str.42, i64 10, i64 1, ptr %1)
  br label %41

35:                                               ; preds = %29
  %36 = call i64 @fwrite(ptr nonnull @.str.43, i64 8, i64 1, ptr %1)
  br label %41

37:                                               ; preds = %29
  %38 = call i64 @fwrite(ptr nonnull @.str.44, i64 13, i64 1, ptr %1)
  br label %41

39:                                               ; preds = %29
  %40 = call i64 @fwrite(ptr nonnull @.str.36, i64 9, i64 1, ptr %1)
  br label %41

41:                                               ; preds = %39, %37, %35, %33
  %42 = getelementptr inbounds i8, ptr %0, i64 56
  %43 = load i64, ptr %42, align 8
  %44 = call i32 (ptr, ptr, ...) @fprintf(ptr noundef %1, ptr noundef nonnull @.str.45, i32 noundef %2, ptr noundef nonnull @.str.31, i32 noundef %3, ptr noundef nonnull @.str.46, i64 noundef %43) #8
  %45 = call i32 (ptr, ptr, ...) @fprintf(ptr noundef %1, ptr noundef nonnull @.str.30, i32 noundef %2, ptr noundef nonnull @.str.31, i32 noundef %3, ptr noundef nonnull @.str.47) #8
  %46 = getelementptr inbounds i8, ptr %0, i64 48
  %47 = load ptr, ptr %46, align 8
  %.not = icmp eq ptr %47, null
  br i1 %.not, label %50, label %48

48:                                               ; preds = %41
  %49 = call i32 @H5T_debug(ptr noundef nonnull %47, ptr noundef %1) #8
  %fputc = call i32 @fputc(i32 10, ptr %1)
  br label %52

50:                                               ; preds = %41
  %51 = call i64 @fwrite(ptr nonnull @.str.49, i64 15, i64 1, ptr %1)
  br label %52

52:                                               ; preds = %50, %48
  ret void
}